; Function Attrs: nounwind uwtable
define range(i32 -2, 1) i32 @IDADlsGetLastFlag(ptr noundef %0, ptr noundef writeonly captures(none) %1) local_unnamed_addr #0 {
  %3 = icmp eq ptr %0, null
  br i1 %3, label %4, label %5

4:                                                ; preds = %2
  tail call void (ptr, i32, ptr, ptr, ptr, ...) @IDAProcessError(ptr noundef null, i32 noundef -1, ptr noundef nonnull @.str, ptr noundef nonnull @.str.16, ptr noundef nonnull @.str.2) #7
  br label %13

5:                                                ; preds = %2
  %6 = getelementptr inbounds nuw i8, ptr %0, i64 1632
  %7 = load ptr, ptr %6, align 8, !tbaa !3
  %8 = icmp eq ptr %7, null
  br i1 %8, label %9, label %10

9:                                                ; preds = %5
  tail call void (ptr, i32, ptr, ptr, ptr, ...) @IDAProcessError(ptr noundef nonnull %0, i32 noundef -2, ptr noundef nonnull @.str, ptr noundef nonnull @.str.16, ptr noundef nonnull @.str.3) #7
  br label %13

10:                                               ; preds = %5
  %11 = getelementptr inbounds nuw i8, ptr %7, i64 112
  %12 = load i64, ptr %11, align 8, !tbaa !30
  store i64 %12, ptr %1, align 8, !tbaa !25
  br label %13

13:                                               ; preds = %10, %9, %4
  %.0 = phi i32 [ -1, %4 ], [ -2, %9 ], [ 0, %10 ]
  ret i32 %.0
}